target datalayout = "e-m:e-p270:32:32-p271:32:32-p272:64:64-i64:64-i128:128-f80:128-n8:16:32:64-S128"
target triple = "x86_64-pc-linux-gnu"

@path_atexit = internal global ptr null, align 8
@.str.33 = private unnamed_addr constant [2 x i8] c"w\00", align 1
@.str.34 = private unnamed_addr constant [14 x i8] c"atexit() run\0A\00", align 1
@atexit_handler_done = internal global i32 0, align 4

; Function Attrs: nounwind uwtable
define internal void @atexit_handler() #0 {
  %1 = alloca ptr, align 8
  %2 = alloca i32, align 4
  call void @llvm.lifetime.start.p0(i64 8, ptr %1) #5
  %3 = load ptr, ptr @path_atexit, align 8, !tbaa !13
  %4 = call noalias ptr @fopen(ptr noundef %3, ptr noundef @.str.33)
  store ptr %4, ptr %1, align 8, !tbaa !11
  %5 = load ptr, ptr %1, align 8, !tbaa !11
  %6 = icmp eq ptr %5, null
  br i1 %6, label %7, label %8

7:                                                ; preds = %0
  store i32 1, ptr %2, align 4
  br label %15

8:                                                ; preds = %0
  %9 = load ptr, ptr %1, align 8, !tbaa !11
  %10 = call i32 (ptr, ptr, ...) @fprintf(ptr noundef %9, ptr noundef @.str.34) #5
  %11 = load ptr, ptr %1, align 8, !tbaa !11
  %12 = call i32 @fclose(ptr noundef %11)
  %13 = load i32, ptr @atexit_handler_done, align 4, !tbaa !4
  %14 = add nsw i32 %13, 1
  store i32 %14, ptr @atexit_handler_done, align 4, !tbaa !4
  store i32 0, ptr %2, align 4
  br label %15

15:                                               ; preds = %8, %7
  call void @llvm.lifetime.end.p0(i64 8, ptr %1) #5
  %16 = load i32, ptr %2, align 4
  switch i32 %16, label %18 [
    i32 0, label %17
    i32 1, label %17
  ]

17:                                               ; preds = %15, %15
  ret void

18:                                               ; preds = %15
  unreachable
}