; Function Attrs: nofree nounwind uwtable
define internal void @atexit_handler() #4 {
  %1 = load ptr, ptr @path_atexit, align 8, !tbaa !9
  %2 = tail call noalias ptr @fopen(ptr noundef %1, ptr noundef nonnull @.str.33)
  %3 = icmp eq ptr %2, null
  br i1 %3, label %9, label %4

4:                                                ; preds = %0
  %5 = tail call i64 @fwrite(ptr nonnull @.str.34, i64 13, i64 1, ptr nonnull %2)
  %6 = tail call i32 @fclose(ptr noundef nonnull %2)
  %7 = load i32, ptr @atexit_handler_done, align 4, !tbaa !11
  %8 = add nsw i32 %7, 1
  store i32 %8, ptr @atexit_handler_done, align 4, !tbaa !11
  br label %9

9:                                                ; preds = %0, %4
  ret void
}